; Function Attrs: nounwind uwtable
define dso_local i64 @pg_stat_get_last_autovacuum_time(ptr noundef captures(none) %0) local_unnamed_addr #0 {
  %2 = getelementptr inbounds nuw i8, ptr %0, i64 32
  %3 = load i64, ptr %2, align 8
  %4 = trunc i64 %3 to i32
  %5 = tail call ptr @pgstat_fetch_stat_tabentry(i32 noundef %4) #9
  %6 = icmp eq ptr %5, null
  br i1 %6, label %.thread, label %7

7:                                                ; preds = %1
  %8 = getelementptr inbounds nuw i8, ptr %5, i64 136
  %9 = load i64, ptr %8, align 8
  %10 = icmp eq i64 %9, 0
  br i1 %10, label %.thread, label %12

.thread:                                          ; preds = %1, %7
  %11 = getelementptr inbounds nuw i8, ptr %0, i64 28
  store i8 1, ptr %11, align 4
  br label %12

12:                                               ; preds = %7, %.thread
  %.0 = phi i64 [ 0, %.thread ], [ %9, %7 ]
  ret i64 %.0
}